target datalayout = "e-m:e-p270:32:32-p271:32:32-p272:64:64-i64:64-i128:128-f80:128-n8:16:32:64-S128"
target triple = "x86_64-pc-linux-gnu"

%struct.RBasic = type { i64, i64 }

@imemo_type_ids = internal global [16 x i64] zeroinitializer, align 16

; Function Attrs: inlinehint nounwind sspstrong willreturn memory(none) uwtable
define internal i64 @RB_INT2FIX(i64 noundef %0) #4 {
  %2 = alloca i64, align 8
  %3 = alloca i64, align 8
  %4 = alloca i64, align 8
  %5 = alloca i64, align 8
  %6 = alloca i64, align 8
  %7 = alloca i64, align 8
  store i64 %0, ptr %2, align 8, !tbaa !6
  call void @llvm.lifetime.start.p0(i64 8, ptr %3) #15
  %8 = load i64, ptr %2, align 8, !tbaa !6
  store i64 %8, ptr %3, align 8, !tbaa !6
  call void @llvm.lifetime.start.p0(i64 8, ptr %4) #15
  %9 = load i64, ptr %3, align 8, !tbaa !6
  %10 = shl i64 %9, 1
  %11 = add i64 %10, 1
  store i64 %11, ptr %4, align 8, !tbaa !6
  call void @llvm.lifetime.start.p0(i64 8, ptr %5) #15
  %12 = load i64, ptr %4, align 8, !tbaa !6
  store i64 %12, ptr %5, align 8, !tbaa !6
  call void @llvm.lifetime.start.p0(i64 8, ptr %6) #15
  %13 = load i64, ptr %5, align 8, !tbaa !6
  store i64 %13, ptr %6, align 8, !tbaa !6
  call void @llvm.lifetime.start.p0(i64 8, ptr %7) #15
  %14 = load i64, ptr %6, align 8, !tbaa !6
  store i64 %14, ptr %7, align 8, !tbaa !6
  %15 = load i64, ptr %7, align 8, !tbaa !6
  call void @llvm.lifetime.end.p0(i64 8, ptr %7) #15
  call void @llvm.lifetime.end.p0(i64 8, ptr %6) #15
  call void @llvm.lifetime.end.p0(i64 8, ptr %5) #15
  call void @llvm.lifetime.end.p0(i64 8, ptr %4) #15
  call void @llvm.lifetime.end.p0(i64 8, ptr %3) #15
  ret i64 %15
}

; Function Attrs: inlinehint nounwind sspstrong uwtable
define internal i32 @RB_FIX2INT(i64 noundef %0) #3 {
  %2 = alloca i64, align 8
  %3 = alloca i64, align 8
  store i64 %0, ptr %2, align 8, !tbaa !6
  call void @llvm.lifetime.start.p0(i64 8, ptr %3) #15
  %4 = load i64, ptr %2, align 8, !tbaa !6
  %5 = call i64 @rb_fix2int(i64 noundef %4)
  store i64 %5, ptr %3, align 8, !tbaa !6
  %6 = load i64, ptr %3, align 8, !tbaa !6
  %7 = trunc i64 %6 to i32
  call void @llvm.lifetime.end.p0(i64 8, ptr %3) #15
  ret i32 %7
}

; Function Attrs: inlinehint nounwind sspstrong willreturn memory(none) uwtable
define internal zeroext i1 @RB_NIL_P(i64 noundef %0) #4 {
  %2 = alloca i64, align 8
  store i64 %0, ptr %2, align 8, !tbaa !6
  %3 = load i64, ptr %2, align 8, !tbaa !6
  %4 = icmp eq i64 %3, 4
  ret i1 %4
}

; Function Attrs: inlinehint nounwind sspstrong uwtable
define internal i32 @imemo_type(i64 noundef %0) #3 {
  %2 = alloca i64, align 8
  store i64 %0, ptr %2, align 8, !tbaa !6
  %3 = load i64, ptr %2, align 8, !tbaa !6
  %4 = inttoptr i64 %3 to ptr
  %5 = getelementptr inbounds nuw %struct.RBasic, ptr %4, i32 0, i32 0
  %6 = load i64, ptr %5, align 8, !tbaa !53
  %7 = lshr i64 %6, 12
  %8 = and i64 %7, 15
  %9 = trunc i64 %8 to i32
  ret i32 %9
}

; Function Attrs: inlinehint nounwind sspstrong willreturn memory(read) uwtable
define internal i32 @RB_BUILTIN_TYPE(i64 noundef %0) #9 {
  %2 = alloca i64, align 8
  %3 = alloca i64, align 8
  store i64 %0, ptr %2, align 8, !tbaa !6
  call void @llvm.lifetime.start.p0(i64 8, ptr %3) #15
  %4 = load i64, ptr %2, align 8, !tbaa !6
  %5 = inttoptr i64 %4 to ptr
  %6 = getelementptr inbounds nuw %struct.RBasic, ptr %5, i32 0, i32 0
  %7 = load i64, ptr %6, align 8, !tbaa !53
  %8 = and i64 %7, 31
  store i64 %8, ptr %3, align 8, !tbaa !6
  %9 = load i64, ptr %3, align 8, !tbaa !6
  %10 = trunc i64 %9 to i32
  call void @llvm.lifetime.end.p0(i64 8, ptr %3) #15
  ret i32 %10
}

; Function Attrs: nounwind sspstrong uwtable
define internal void @count_imemo_objects_i(i64 noundef %0, ptr noundef %1) #0 {
  %3 = alloca i64, align 8
  %4 = alloca ptr, align 8
  %5 = alloca i64, align 8
  %6 = alloca i64, align 8
  %7 = alloca i64, align 8
  %8 = alloca i64, align 8
  store i64 %0, ptr %3, align 8, !tbaa !6
  store ptr %1, ptr %4, align 8, !tbaa !46
  call void @llvm.lifetime.start.p0(i64 8, ptr %5) #15
  %9 = load ptr, ptr %4, align 8, !tbaa !46
  %10 = ptrtoint ptr %9 to i64
  store i64 %10, ptr %5, align 8, !tbaa !6
  %11 = load i64, ptr %3, align 8, !tbaa !6
  %12 = call i32 @RB_BUILTIN_TYPE(i64 noundef %11) #17
  %13 = icmp eq i32 %12, 26
  br i1 %13, label %14, label %39

14:                                               ; preds = %2
  call void @llvm.lifetime.start.p0(i64 8, ptr %6) #15
  call void @llvm.lifetime.start.p0(i64 8, ptr %7) #15
  %15 = load i64, ptr %3, align 8, !tbaa !6
  %16 = call i32 @imemo_type(i64 noundef %15)
  %17 = zext i32 %16 to i64
  %18 = getelementptr inbounds nuw [16 x i64], ptr @imemo_type_ids, i64 0, i64 %17
  %19 = load i64, ptr %18, align 8, !tbaa !6
  %20 = call i64 @rb_id2sym(i64 noundef %19)
  store i64 %20, ptr %8, align 8, !tbaa !6
  %21 = load i64, ptr %8, align 8, !tbaa !6
  store i64 %21, ptr %7, align 8, !tbaa !6
  %22 = load i64, ptr %5, align 8, !tbaa !6
  %23 = load i64, ptr %7, align 8, !tbaa !6
  %24 = call i64 @rb_hash_aref(i64 noundef %22, i64 noundef %23)
  store i64 %24, ptr %6, align 8, !tbaa !6
  %25 = load i64, ptr %6, align 8, !tbaa !6
  %26 = call zeroext i1 @RB_NIL_P(i64 noundef %25) #18
  br i1 %26, label %27, label %28

27:                                               ; preds = %14
  store i64 3, ptr %6, align 8, !tbaa !6
  br label %34

28:                                               ; preds = %14
  %29 = load i64, ptr %6, align 8, !tbaa !6
  %30 = call i32 @RB_FIX2INT(i64 noundef %29)
  %31 = add nsw i32 %30, 1
  %32 = sext i32 %31 to i64
  %33 = call i64 @RB_INT2FIX(i64 noundef %32) #18
  store i64 %33, ptr %6, align 8, !tbaa !6
  br label %34

34:                                               ; preds = %28, %27
  %35 = load i64, ptr %5, align 8, !tbaa !6
  %36 = load i64, ptr %7, align 8, !tbaa !6
  %37 = load i64, ptr %6, align 8, !tbaa !6
  %38 = call i64 @rb_hash_aset(i64 noundef %35, i64 noundef %36, i64 noundef %37)
  call void @llvm.lifetime.end.p0(i64 8, ptr %7) #15
  call void @llvm.lifetime.end.p0(i64 8, ptr %6) #15
  br label %39

39:                                               ; preds = %34, %2
  call void @llvm.lifetime.end.p0(i64 8, ptr %5) #15
  ret void
}