; Function Attrs: nounwind sspstrong uwtable
define internal void @count_imemo_objects_i(i64 noundef %0, ptr noundef %1) #0 {
  %3 = ptrtoint ptr %1 to i64
  %4 = inttoptr i64 %0 to ptr
  %5 = load i64, ptr %4, align 8, !tbaa !32
  %6 = and i64 %5, 31
  %7 = icmp eq i64 %6, 26
  br i1 %7, label %8, label %23

8:                                                ; preds = %2
  %9 = lshr i64 %5, 12
  %10 = and i64 %9, 15
  %11 = getelementptr inbounds nuw [16 x i64], ptr @imemo_type_ids, i64 0, i64 %10
  %12 = load i64, ptr %11, align 8, !tbaa !6
  %13 = tail call i64 @rb_id2sym(i64 noundef %12) #7
  %14 = tail call i64 @rb_hash_aref(i64 noundef %3, i64 noundef %13) #7
  %15 = icmp eq i64 %14, 4
  br i1 %15, label %21, label %16

16:                                               ; preds = %8
  %17 = tail call i64 @rb_fix2int(i64 noundef %14) #7
  %18 = shl i64 %17, 32
  %sext = add i64 %18, 4294967296
  %19 = ashr exact i64 %sext, 31
  %20 = or disjoint i64 %19, 1
  br label %21

21:                                               ; preds = %8, %16
  %.0 = phi i64 [ %20, %16 ], [ 3, %8 ]
  %22 = tail call i64 @rb_hash_aset(i64 noundef %3, i64 noundef %13, i64 noundef %.0) #7
  br label %23

23:                                               ; preds = %21, %2
  ret void
}